#include <math.h>
#include <stdio.h>
#include <stdlib.h>
#include <string.h>

int main()
{
	int n,a,b,c,d;
	scanf("%d",&n);
	a=n/1000;
	b=n/100-10*a;
	c=n/10-100*a-10*b;
	d=n-1000*a-100*b-10*c;
	if(a==0)
	{
		if(b==0)
		{
			if(c==0)
			{
				printf("%d\n",d);
			}
			else
				printf("%d%d\n",d,c);
		}
		else
			printf("%d%d%d\n",d,c,b);
	}
	else
		printf("%d%d%d%d\n",d,c,b,a);
	return 0;
}